target datalayout = "e-m:e-p270:32:32-p271:32:32-p272:64:64-i64:64-i128:128-f80:128-n8:16:32:64-S128"
target triple = "x86_64-pc-linux-gnu"

@.str = private unnamed_addr constant [33 x i8] c"\0AERROR - %s line %d failed with:\00", align 1
@.str.1 = private unnamed_addr constant [105 x i8] c"generated/home/dtcxzyw/WorkSpace/Projects/compilers/llvm-opt-benchmark/bench/wolfssl/wolfssl/tests/api.c\00", align 1
@.str.2 = private unnamed_addr constant [16 x i8] c"\0A    expected: \00", align 1
@stdout = external global ptr, align 8
@.str.3 = private unnamed_addr constant [9 x i8] c"%s == %s\00", align 1
@.str.6 = private unnamed_addr constant [16 x i8] c"\0A    result:   \00", align 1
@.str.7 = private unnamed_addr constant [9 x i8] c"%d != %d\00", align 1
@.str.8 = private unnamed_addr constant [3 x i8] c"\0A\0A\00", align 1
@.str.1078 = private unnamed_addr constant [15 x i8] c"(BAD_FUNC_ARG)\00", align 1
@.str.1294 = private unnamed_addr constant [10 x i8] c"SECP256R1\00", align 1
@.str.1297 = private unnamed_addr constant [9 x i8] c"BADCURVE\00", align 1
@.str.1299 = private unnamed_addr constant [3 x i8] c"-1\00", align 1
@.str.1301 = private unnamed_addr constant [43 x i8] c"wc_ecc_get_curve_id_from_name(\22SECP256R1\22)\00", align 1
@.str.1302 = private unnamed_addr constant [14 x i8] c"ECC_SECP256R1\00", align 1
@.str.1303 = private unnamed_addr constant [42 x i8] c"wc_ecc_get_curve_id_from_name(\22BADCURVE\22)\00", align 1
@.str.1304 = private unnamed_addr constant [42 x i8] c"wc_ecc_get_curve_id_from_name(((void*)0))\00", align 1

; Function Attrs: nounwind uwtable
define internal i32 @test_wc_ecc_get_curve_id_from_name() #0 {
  %1 = alloca i32, align 4
  %2 = alloca i32, align 4
  %3 = alloca i32, align 4
  %4 = alloca i32, align 4
  %5 = alloca i32, align 4
  %6 = alloca i32, align 4
  %7 = alloca i32, align 4
  %8 = alloca i32, align 4
  call void @llvm.lifetime.start.p0(i64 4, ptr %1) #14
  store i32 3, ptr %1, align 4, !tbaa !10
  call void @llvm.lifetime.start.p0(i64 4, ptr %2) #14
  store i32 0, ptr %2, align 4, !tbaa !10
  br label %9

9:                                                ; preds = %0
  %10 = load i32, ptr %1, align 4, !tbaa !10
  %11 = icmp eq i32 %10, 1
  br i1 %11, label %21, label %12

12:                                               ; preds = %9
  %13 = load i32, ptr %1, align 4, !tbaa !10
  %14 = icmp eq i32 %13, 3
  br i1 %14, label %21, label %15

15:                                               ; preds = %12
  %16 = load i32, ptr %1, align 4, !tbaa !10
  %17 = icmp eq i32 %16, 2
  br i1 %17, label %21, label %18

18:                                               ; preds = %15
  %19 = load i32, ptr %1, align 4, !tbaa !10
  %20 = icmp eq i32 %19, 4
  br i1 %20, label %21, label %81

21:                                               ; preds = %18, %15, %12, %9
  call void @llvm.lifetime.start.p0(i64 4, ptr %3) #14
  %22 = call i32 @wc_ecc_get_curve_id_from_name(ptr noundef @.str.1294)
  store i32 %22, ptr %3, align 4, !tbaa !10
  call void @llvm.lifetime.start.p0(i64 4, ptr %4) #14
  store i32 7, ptr %4, align 4, !tbaa !10
  br label %23

23:                                               ; preds = %21
  %24 = load i32, ptr %1, align 4, !tbaa !10
  %25 = icmp eq i32 %24, 1
  br i1 %25, label %35, label %26

26:                                               ; preds = %23
  %27 = load i32, ptr %1, align 4, !tbaa !10
  %28 = icmp eq i32 %27, 3
  br i1 %28, label %35, label %29

29:                                               ; preds = %26
  %30 = load i32, ptr %1, align 4, !tbaa !10
  %31 = icmp eq i32 %30, 2
  br i1 %31, label %35, label %32

32:                                               ; preds = %29
  %33 = load i32, ptr %1, align 4, !tbaa !10
  %34 = icmp eq i32 %33, 4
  br i1 %34, label %35, label %72

35:                                               ; preds = %32, %29, %26, %23
  %36 = load i32, ptr %3, align 4, !tbaa !10
  %37 = load i32, ptr %4, align 4, !tbaa !10
  %38 = icmp eq i32 %36, %37
  br i1 %38, label %65, label %39

39:                                               ; preds = %35
  br label %40

40:                                               ; preds = %39
  %41 = load i32, ptr %1, align 4, !tbaa !10
  %42 = icmp eq i32 %41, 2
  br i1 %42, label %46, label %43

43:                                               ; preds = %40
  %44 = load i32, ptr %1, align 4, !tbaa !10
  %45 = icmp eq i32 %44, 4
  br i1 %45, label %46, label %48

46:                                               ; preds = %43, %40
  %47 = load i32, ptr %2, align 4, !tbaa !10
  store i32 %47, ptr %1, align 4, !tbaa !10
  br label %62

48:                                               ; preds = %43
  %49 = call i32 (ptr, ...) @printf(ptr noundef @.str, ptr noundef @.str.1, i32 noundef 76581)
  %50 = load ptr, ptr @stdout, align 8, !tbaa !22
  %51 = call i32 @fputs(ptr noundef @.str.2, ptr noundef %50)
  %52 = call i32 (ptr, ...) @printf(ptr noundef @.str.3, ptr noundef @.str.1301, ptr noundef @.str.1302)
  %53 = load ptr, ptr @stdout, align 8, !tbaa !22
  %54 = call i32 @fputs(ptr noundef @.str.6, ptr noundef %53)
  %55 = load i32, ptr %3, align 4, !tbaa !10
  %56 = load i32, ptr %4, align 4, !tbaa !10
  %57 = call i32 (ptr, ...) @printf(ptr noundef @.str.7, i32 noundef %55, i32 noundef %56)
  %58 = load ptr, ptr @stdout, align 8, !tbaa !22
  %59 = call i32 @fputs(ptr noundef @.str.8, ptr noundef %58)
  %60 = load ptr, ptr @stdout, align 8, !tbaa !22
  %61 = call i32 @fflush(ptr noundef %60)
  store i32 0, ptr %1, align 4, !tbaa !10
  br label %62

62:                                               ; preds = %48, %46
  br label %63

63:                                               ; preds = %62
  br label %64

64:                                               ; preds = %63
  br label %71

65:                                               ; preds = %35
  %66 = load i32, ptr %1, align 4, !tbaa !10
  %67 = icmp eq i32 %66, 4
  br i1 %67, label %68, label %69

68:                                               ; preds = %65
  store i32 2, ptr %1, align 4, !tbaa !10
  br label %70

69:                                               ; preds = %65
  store i32 1, ptr %1, align 4, !tbaa !10
  br label %70

70:                                               ; preds = %69, %68
  br label %71

71:                                               ; preds = %70, %64
  br label %72

72:                                               ; preds = %71, %32
  %73 = load i32, ptr %1, align 4, !tbaa !10
  %74 = icmp eq i32 %73, 2
  br i1 %74, label %75, label %78

75:                                               ; preds = %72
  %76 = load i32, ptr %2, align 4, !tbaa !10
  %77 = add nsw i32 %76, -1
  store i32 %77, ptr %2, align 4, !tbaa !10
  br label %78

78:                                               ; preds = %75, %72
  br label %79

79:                                               ; preds = %78
  br label %80

80:                                               ; preds = %79
  call void @llvm.lifetime.end.p0(i64 4, ptr %4) #14
  call void @llvm.lifetime.end.p0(i64 4, ptr %3) #14
  br label %81

81:                                               ; preds = %80, %18
  br label %82

82:                                               ; preds = %81
  br label %83

83:                                               ; preds = %82
  br label %84

84:                                               ; preds = %83
  %85 = load i32, ptr %1, align 4, !tbaa !10
  %86 = icmp eq i32 %85, 1
  br i1 %86, label %96, label %87

87:                                               ; preds = %84
  %88 = load i32, ptr %1, align 4, !tbaa !10
  %89 = icmp eq i32 %88, 3
  br i1 %89, label %96, label %90

90:                                               ; preds = %87
  %91 = load i32, ptr %1, align 4, !tbaa !10
  %92 = icmp eq i32 %91, 2
  br i1 %92, label %96, label %93

93:                                               ; preds = %90
  %94 = load i32, ptr %1, align 4, !tbaa !10
  %95 = icmp eq i32 %94, 4
  br i1 %95, label %96, label %156

96:                                               ; preds = %93, %90, %87, %84
  call void @llvm.lifetime.start.p0(i64 4, ptr %5) #14
  %97 = call i32 @wc_ecc_get_curve_id_from_name(ptr noundef @.str.1297)
  store i32 %97, ptr %5, align 4, !tbaa !10
  call void @llvm.lifetime.start.p0(i64 4, ptr %6) #14
  store i32 -1, ptr %6, align 4, !tbaa !10
  br label %98

98:                                               ; preds = %96
  %99 = load i32, ptr %1, align 4, !tbaa !10
  %100 = icmp eq i32 %99, 1
  br i1 %100, label %110, label %101

101:                                              ; preds = %98
  %102 = load i32, ptr %1, align 4, !tbaa !10
  %103 = icmp eq i32 %102, 3
  br i1 %103, label %110, label %104

104:                                              ; preds = %101
  %105 = load i32, ptr %1, align 4, !tbaa !10
  %106 = icmp eq i32 %105, 2
  br i1 %106, label %110, label %107

107:                                              ; preds = %104
  %108 = load i32, ptr %1, align 4, !tbaa !10
  %109 = icmp eq i32 %108, 4
  br i1 %109, label %110, label %147

110:                                              ; preds = %107, %104, %101, %98
  %111 = load i32, ptr %5, align 4, !tbaa !10
  %112 = load i32, ptr %6, align 4, !tbaa !10
  %113 = icmp eq i32 %111, %112
  br i1 %113, label %140, label %114

114:                                              ; preds = %110
  br label %115

115:                                              ; preds = %114
  %116 = load i32, ptr %1, align 4, !tbaa !10
  %117 = icmp eq i32 %116, 2
  br i1 %117, label %121, label %118

118:                                              ; preds = %115
  %119 = load i32, ptr %1, align 4, !tbaa !10
  %120 = icmp eq i32 %119, 4
  br i1 %120, label %121, label %123

121:                                              ; preds = %118, %115
  %122 = load i32, ptr %2, align 4, !tbaa !10
  store i32 %122, ptr %1, align 4, !tbaa !10
  br label %137

123:                                              ; preds = %118
  %124 = call i32 (ptr, ...) @printf(ptr noundef @.str, ptr noundef @.str.1, i32 noundef 76584)
  %125 = load ptr, ptr @stdout, align 8, !tbaa !22
  %126 = call i32 @fputs(ptr noundef @.str.2, ptr noundef %125)
  %127 = call i32 (ptr, ...) @printf(ptr noundef @.str.3, ptr noundef @.str.1303, ptr noundef @.str.1299)
  %128 = load ptr, ptr @stdout, align 8, !tbaa !22
  %129 = call i32 @fputs(ptr noundef @.str.6, ptr noundef %128)
  %130 = load i32, ptr %5, align 4, !tbaa !10
  %131 = load i32, ptr %6, align 4, !tbaa !10
  %132 = call i32 (ptr, ...) @printf(ptr noundef @.str.7, i32 noundef %130, i32 noundef %131)
  %133 = load ptr, ptr @stdout, align 8, !tbaa !22
  %134 = call i32 @fputs(ptr noundef @.str.8, ptr noundef %133)
  %135 = load ptr, ptr @stdout, align 8, !tbaa !22
  %136 = call i32 @fflush(ptr noundef %135)
  store i32 0, ptr %1, align 4, !tbaa !10
  br label %137

137:                                              ; preds = %123, %121
  br label %138

138:                                              ; preds = %137
  br label %139

139:                                              ; preds = %138
  br label %146

140:                                              ; preds = %110
  %141 = load i32, ptr %1, align 4, !tbaa !10
  %142 = icmp eq i32 %141, 4
  br i1 %142, label %143, label %144

143:                                              ; preds = %140
  store i32 2, ptr %1, align 4, !tbaa !10
  br label %145

144:                                              ; preds = %140
  store i32 1, ptr %1, align 4, !tbaa !10
  br label %145

145:                                              ; preds = %144, %143
  br label %146

146:                                              ; preds = %145, %139
  br label %147

147:                                              ; preds = %146, %107
  %148 = load i32, ptr %1, align 4, !tbaa !10
  %149 = icmp eq i32 %148, 2
  br i1 %149, label %150, label %153

150:                                              ; preds = %147
  %151 = load i32, ptr %2, align 4, !tbaa !10
  %152 = add nsw i32 %151, -1
  store i32 %152, ptr %2, align 4, !tbaa !10
  br label %153

153:                                              ; preds = %150, %147
  br label %154

154:                                              ; preds = %153
  br label %155

155:                                              ; preds = %154
  call void @llvm.lifetime.end.p0(i64 4, ptr %6) #14
  call void @llvm.lifetime.end.p0(i64 4, ptr %5) #14
  br label %156

156:                                              ; preds = %155, %93
  br label %157

157:                                              ; preds = %156
  br label %158

158:                                              ; preds = %157
  br label %159

159:                                              ; preds = %158
  %160 = load i32, ptr %1, align 4, !tbaa !10
  %161 = icmp eq i32 %160, 1
  br i1 %161, label %171, label %162

162:                                              ; preds = %159
  %163 = load i32, ptr %1, align 4, !tbaa !10
  %164 = icmp eq i32 %163, 3
  br i1 %164, label %171, label %165

165:                                              ; preds = %162
  %166 = load i32, ptr %1, align 4, !tbaa !10
  %167 = icmp eq i32 %166, 2
  br i1 %167, label %171, label %168

168:                                              ; preds = %165
  %169 = load i32, ptr %1, align 4, !tbaa !10
  %170 = icmp eq i32 %169, 4
  br i1 %170, label %171, label %231

171:                                              ; preds = %168, %165, %162, %159
  call void @llvm.lifetime.start.p0(i64 4, ptr %7) #14
  %172 = call i32 @wc_ecc_get_curve_id_from_name(ptr noundef null)
  store i32 %172, ptr %7, align 4, !tbaa !10
  call void @llvm.lifetime.start.p0(i64 4, ptr %8) #14
  store i32 -173, ptr %8, align 4, !tbaa !10
  br label %173

173:                                              ; preds = %171
  %174 = load i32, ptr %1, align 4, !tbaa !10
  %175 = icmp eq i32 %174, 1
  br i1 %175, label %185, label %176

176:                                              ; preds = %173
  %177 = load i32, ptr %1, align 4, !tbaa !10
  %178 = icmp eq i32 %177, 3
  br i1 %178, label %185, label %179

179:                                              ; preds = %176
  %180 = load i32, ptr %1, align 4, !tbaa !10
  %181 = icmp eq i32 %180, 2
  br i1 %181, label %185, label %182

182:                                              ; preds = %179
  %183 = load i32, ptr %1, align 4, !tbaa !10
  %184 = icmp eq i32 %183, 4
  br i1 %184, label %185, label %222

185:                                              ; preds = %182, %179, %176, %173
  %186 = load i32, ptr %7, align 4, !tbaa !10
  %187 = load i32, ptr %8, align 4, !tbaa !10
  %188 = icmp eq i32 %186, %187
  br i1 %188, label %215, label %189

189:                                              ; preds = %185
  br label %190

190:                                              ; preds = %189
  %191 = load i32, ptr %1, align 4, !tbaa !10
  %192 = icmp eq i32 %191, 2
  br i1 %192, label %196, label %193

193:                                              ; preds = %190
  %194 = load i32, ptr %1, align 4, !tbaa !10
  %195 = icmp eq i32 %194, 4
  br i1 %195, label %196, label %198

196:                                              ; preds = %193, %190
  %197 = load i32, ptr %2, align 4, !tbaa !10
  store i32 %197, ptr %1, align 4, !tbaa !10
  br label %212

198:                                              ; preds = %193
  %199 = call i32 (ptr, ...) @printf(ptr noundef @.str, ptr noundef @.str.1, i32 noundef 76586)
  %200 = load ptr, ptr @stdout, align 8, !tbaa !22
  %201 = call i32 @fputs(ptr noundef @.str.2, ptr noundef %200)
  %202 = call i32 (ptr, ...) @printf(ptr noundef @.str.3, ptr noundef @.str.1304, ptr noundef @.str.1078)
  %203 = load ptr, ptr @stdout, align 8, !tbaa !22
  %204 = call i32 @fputs(ptr noundef @.str.6, ptr noundef %203)
  %205 = load i32, ptr %7, align 4, !tbaa !10
  %206 = load i32, ptr %8, align 4, !tbaa !10
  %207 = call i32 (ptr, ...) @printf(ptr noundef @.str.7, i32 noundef %205, i32 noundef %206)
  %208 = load ptr, ptr @stdout, align 8, !tbaa !22
  %209 = call i32 @fputs(ptr noundef @.str.8, ptr noundef %208)
  %210 = load ptr, ptr @stdout, align 8, !tbaa !22
  %211 = call i32 @fflush(ptr noundef %210)
  store i32 0, ptr %1, align 4, !tbaa !10
  br label %212

212:                                              ; preds = %198, %196
  br label %213

213:                                              ; preds = %212
  br label %214

214:                                              ; preds = %213
  br label %221

215:                                              ; preds = %185
  %216 = load i32, ptr %1, align 4, !tbaa !10
  %217 = icmp eq i32 %216, 4
  br i1 %217, label %218, label %219

218:                                              ; preds = %215
  store i32 2, ptr %1, align 4, !tbaa !10
  br label %220

219:                                              ; preds = %215
  store i32 1, ptr %1, align 4, !tbaa !10
  br label %220

220:                                              ; preds = %219, %218
  br label %221

221:                                              ; preds = %220, %214
  br label %222

222:                                              ; preds = %221, %182
  %223 = load i32, ptr %1, align 4, !tbaa !10
  %224 = icmp eq i32 %223, 2
  br i1 %224, label %225, label %228

225:                                              ; preds = %222
  %226 = load i32, ptr %2, align 4, !tbaa !10
  %227 = add nsw i32 %226, -1
  store i32 %227, ptr %2, align 4, !tbaa !10
  br label %228

228:                                              ; preds = %225, %222
  br label %229

229:                                              ; preds = %228
  br label %230

230:                                              ; preds = %229
  call void @llvm.lifetime.end.p0(i64 4, ptr %8) #14
  call void @llvm.lifetime.end.p0(i64 4, ptr %7) #14
  br label %231

231:                                              ; preds = %230, %168
  br label %232

232:                                              ; preds = %231
  br label %233

233:                                              ; preds = %232
  %234 = load i32, ptr %1, align 4, !tbaa !10
  %235 = icmp eq i32 %234, 2
  br i1 %235, label %236, label %237

236:                                              ; preds = %233
  br label %245

237:                                              ; preds = %233
  %238 = load i32, ptr %1, align 4, !tbaa !10
  %239 = icmp eq i32 %238, 4
  br i1 %239, label %240, label %241

240:                                              ; preds = %237
  br label %243

241:                                              ; preds = %237
  %242 = load i32, ptr %1, align 4, !tbaa !10
  br label %243

243:                                              ; preds = %241, %240
  %244 = phi i32 [ 3, %240 ], [ %242, %241 ]
  br label %245

245:                                              ; preds = %243, %236
  %246 = phi i32 [ 1, %236 ], [ %244, %243 ]
  call void @llvm.lifetime.end.p0(i64 4, ptr %2) #14
  call void @llvm.lifetime.end.p0(i64 4, ptr %1) #14
  ret i32 %246
}