; Function Attrs: nounwind uwtable
define internal range(i32 0, 2) i32 @test_wc_ecc_get_curve_id_from_name() #0 {
  %1 = tail call i32 @wc_ecc_get_curve_id_from_name(ptr noundef nonnull @.str.1294) #27
  %2 = icmp eq i32 %1, 7
  br i1 %2, label %11, label %3

3:                                                ; preds = %0
  %4 = tail call i32 (ptr, ...) @printf(ptr noundef nonnull dereferenceable(1) @.str, ptr noundef nonnull @.str.1, i32 noundef 76581)
  %5 = load ptr, ptr @stdout, align 8, !tbaa !22
  %6 = tail call i64 @fwrite(ptr nonnull @.str.2, i64 15, i64 1, ptr %5)
  %7 = tail call i32 (ptr, ...) @printf(ptr noundef nonnull dereferenceable(1) @.str.3, ptr noundef nonnull @.str.1301, ptr noundef nonnull @.str.1302)
  %8 = load ptr, ptr @stdout, align 8, !tbaa !22
  %9 = tail call i64 @fwrite(ptr nonnull @.str.6, i64 15, i64 1, ptr %8)
  %10 = tail call i32 (ptr, ...) @printf(ptr noundef nonnull dereferenceable(1) @.str.7, i32 noundef %1, i32 noundef 7)
  br label %.thread106.sink.split

11:                                               ; preds = %0
  %12 = tail call i32 @wc_ecc_get_curve_id_from_name(ptr noundef nonnull @.str.1297) #27
  %13 = icmp eq i32 %12, -1
  br i1 %13, label %22, label %14

14:                                               ; preds = %11
  %15 = tail call i32 (ptr, ...) @printf(ptr noundef nonnull dereferenceable(1) @.str, ptr noundef nonnull @.str.1, i32 noundef 76584)
  %16 = load ptr, ptr @stdout, align 8, !tbaa !22
  %17 = tail call i64 @fwrite(ptr nonnull @.str.2, i64 15, i64 1, ptr %16)
  %18 = tail call i32 (ptr, ...) @printf(ptr noundef nonnull dereferenceable(1) @.str.3, ptr noundef nonnull @.str.1303, ptr noundef nonnull @.str.1299)
  %19 = load ptr, ptr @stdout, align 8, !tbaa !22
  %20 = tail call i64 @fwrite(ptr nonnull @.str.6, i64 15, i64 1, ptr %19)
  %21 = tail call i32 (ptr, ...) @printf(ptr noundef nonnull dereferenceable(1) @.str.7, i32 noundef %12, i32 noundef -1)
  br label %.thread106.sink.split

22:                                               ; preds = %11
  %23 = tail call i32 @wc_ecc_get_curve_id_from_name(ptr noundef null) #27
  %24 = icmp eq i32 %23, -173
  br i1 %24, label %.thread106, label %25

25:                                               ; preds = %22
  %26 = tail call i32 (ptr, ...) @printf(ptr noundef nonnull dereferenceable(1) @.str, ptr noundef nonnull @.str.1, i32 noundef 76586)
  %27 = load ptr, ptr @stdout, align 8, !tbaa !22
  %28 = tail call i64 @fwrite(ptr nonnull @.str.2, i64 15, i64 1, ptr %27)
  %29 = tail call i32 (ptr, ...) @printf(ptr noundef nonnull dereferenceable(1) @.str.3, ptr noundef nonnull @.str.1304, ptr noundef nonnull @.str.1078)
  %30 = load ptr, ptr @stdout, align 8, !tbaa !22
  %31 = tail call i64 @fwrite(ptr nonnull @.str.6, i64 15, i64 1, ptr %30)
  %32 = tail call i32 (ptr, ...) @printf(ptr noundef nonnull dereferenceable(1) @.str.7, i32 noundef %23, i32 noundef -173)
  br label %.thread106.sink.split

.thread106.sink.split:                            ; preds = %25, %3, %14
  %33 = load ptr, ptr @stdout, align 8, !tbaa !22
  %34 = tail call i64 @fwrite(ptr nonnull @.str.8, i64 2, i64 1, ptr %33)
  %35 = load ptr, ptr @stdout, align 8, !tbaa !22
  %36 = tail call i32 @fflush(ptr noundef %35)
  br label %.thread106

.thread106:                                       ; preds = %.thread106.sink.split, %22
  %.5 = phi i32 [ 1, %22 ], [ 0, %.thread106.sink.split ]
  ret i32 %.5
}